target datalayout = "e-m:e-p270:32:32-p271:32:32-p272:64:64-i64:64-i128:128-f80:128-n8:16:32:64-S128"
target triple = "x86_64-pc-linux-gnu"

%struct.darktable_t = type { %struct.dt_codepath_t, i32, i32, ptr, ptr, ptr, ptr, ptr, ptr, ptr, ptr, ptr, ptr, ptr, ptr, ptr, ptr, ptr, ptr, ptr, ptr, ptr, ptr, ptr, ptr, ptr, ptr, ptr, ptr, ptr, [64 x %struct.dt_pthread_mutex_t], %struct.dt_pthread_mutex_t, %struct.dt_pthread_mutex_t, %struct.dt_pthread_mutex_t, %struct.dt_pthread_mutex_t, %struct.dt_pthread_mutex_t, ptr, ptr, ptr, ptr, ptr, ptr, ptr, ptr, ptr, ptr, ptr, ptr, ptr, %struct.dt_lua_state_t, ptr, double, ptr, i32, [47 x i32], i32, i32, ptr, ptr, %struct.dt_sys_resources_t, %struct.dt_backthumb_t, %struct.dt_gimp_t }
%struct.dt_codepath_t = type { i8, [3 x i8] }
%struct.dt_pthread_mutex_t = type { %union.pthread_mutex_t }
%union.pthread_mutex_t = type { %struct.__pthread_mutex_s }
%struct.__pthread_mutex_s = type { i32, i32, i32, i32, i32, i16, i16, %struct.__pthread_internal_list }
%struct.__pthread_internal_list = type { ptr, ptr }
%struct.dt_lua_state_t = type { i32 }
%struct.dt_sys_resources_t = type { i64, i64, ptr, ptr, i32 }
%struct.dt_backthumb_t = type { double, double, i32, i32, i32, i32 }
%struct.dt_gimp_t = type { i32, ptr, ptr, i32, i32 }
%struct.dt_camctl_t = type { %struct.dt_pthread_mutex_t, %struct.dt_pthread_mutex_t, i64, ptr, ptr, ptr, ptr, ptr, ptr, ptr, ptr, i32, i32, i32 }
%struct.dt_camera_t = type { ptr, ptr, %struct.CameraText, ptr, ptr, %struct.dt_pthread_mutex_t, i32, i32, i32, i32, i32, i32, i32, i32, i32, ptr, %struct.dt_pthread_mutex_t, ptr, %struct.anon, ptr, ptr, i32, i32, i32, i32, ptr, i32, i32, i32, i32, i32, i32, i32, i32, i64, %struct.dt_pthread_mutex_t, %struct.dt_pthread_mutex_t }
%struct.CameraText = type { [32768 x i8] }
%struct.anon = type { ptr, i32 }

@darktable = external global %struct.darktable_t, align 8
@.str.93 = private unnamed_addr constant [60 x i8] c"[camera_control] failed to get config value for property %s\00", align 1

; Function Attrs: inlinehint nounwind uwtable
define internal i32 @dt_pthread_mutex_unlock(ptr noundef %0) #4 {
  %2 = alloca ptr, align 8
  store ptr %0, ptr %2, align 8, !tbaa !91
  %3 = load ptr, ptr %2, align 8, !tbaa !91
  %4 = getelementptr inbounds nuw %struct.dt_pthread_mutex_t, ptr %3, i32 0, i32 0
  %5 = call i32 @pthread_mutex_unlock(ptr noundef %4) #10
  ret i32 %5
}

; Function Attrs: inlinehint nounwind uwtable
define internal i32 @dt_pthread_mutex_lock(ptr noundef %0) #4 {
  %2 = alloca ptr, align 8
  store ptr %0, ptr %2, align 8, !tbaa !91
  %3 = load ptr, ptr %2, align 8, !tbaa !91
  %4 = getelementptr inbounds nuw %struct.dt_pthread_mutex_t, ptr %3, i32 0, i32 0
  %5 = call i32 @pthread_mutex_lock(ptr noundef %4) #10
  ret i32 %5
}

; Function Attrs: nounwind uwtable
define internal void @_camera_configuration_single_update(ptr noundef %0, ptr noundef %1, ptr noundef %2) #0 {
  %4 = alloca ptr, align 8
  %5 = alloca ptr, align 8
  %6 = alloca ptr, align 8
  %7 = alloca ptr, align 8
  %8 = alloca ptr, align 8
  %9 = alloca i32, align 4
  %10 = alloca ptr, align 8
  %11 = alloca ptr, align 8
  store ptr %0, ptr %4, align 8, !tbaa !6
  store ptr %1, ptr %5, align 8, !tbaa !21
  store ptr %2, ptr %6, align 8, !tbaa !63
  call void @llvm.lifetime.start.p0(i64 8, ptr %7) #10
  %12 = load ptr, ptr %5, align 8, !tbaa !21
  store ptr %12, ptr %7, align 8, !tbaa !21
  %13 = load ptr, ptr %7, align 8, !tbaa !21
  %14 = getelementptr inbounds nuw %struct.dt_camera_t, ptr %13, i32 0, i32 5
  %15 = call i32 @dt_pthread_mutex_lock(ptr noundef %14)
  call void @llvm.lifetime.start.p0(i64 8, ptr %8) #10
  %16 = load ptr, ptr %5, align 8, !tbaa !21
  %17 = getelementptr inbounds nuw %struct.dt_camera_t, ptr %16, i32 0, i32 19
  %18 = load ptr, ptr %17, align 8, !tbaa !96
  %19 = load ptr, ptr %6, align 8, !tbaa !63
  %20 = load ptr, ptr %4, align 8, !tbaa !6
  %21 = getelementptr inbounds nuw %struct.dt_camctl_t, ptr %20, i32 0, i32 6
  %22 = load ptr, ptr %21, align 8, !tbaa !79
  %23 = call i32 @gp_camera_get_single_config(ptr noundef %18, ptr noundef %19, ptr noundef %8, ptr noundef %22)
  %24 = icmp ne i32 %23, 0
  br i1 %24, label %25, label %43

25:                                               ; preds = %3
  br label %26

26:                                               ; preds = %25
  %27 = load i32, ptr getelementptr inbounds nuw (%struct.darktable_t, ptr @darktable, i32 0, i32 2), align 8, !tbaa !22
  %28 = and i32 32, %27
  %29 = icmp ne i32 %28, 0
  br i1 %29, label %30, label %37

30:                                               ; preds = %26
  %31 = load i32, ptr getelementptr inbounds nuw (%struct.darktable_t, ptr @darktable, i32 0, i32 2), align 8, !tbaa !22
  %32 = xor i32 %31, -1
  %33 = and i32 0, %32
  %34 = icmp ne i32 %33, 0
  br i1 %34, label %37, label %35

35:                                               ; preds = %30
  %36 = load ptr, ptr %6, align 8, !tbaa !63
  call void (ptr, ...) @dt_print_ext(ptr noundef @.str.93, ptr noundef %36)
  br label %37

37:                                               ; preds = %35, %30, %26
  br label %38

38:                                               ; preds = %37
  br label %39

39:                                               ; preds = %38
  %40 = load ptr, ptr %7, align 8, !tbaa !21
  %41 = getelementptr inbounds nuw %struct.dt_camera_t, ptr %40, i32 0, i32 5
  %42 = call i32 @dt_pthread_mutex_unlock(ptr noundef %41)
  store i32 1, ptr %9, align 4
  br label %67

43:                                               ; preds = %3
  %44 = load ptr, ptr %4, align 8, !tbaa !6
  %45 = load ptr, ptr %5, align 8, !tbaa !21
  %46 = load ptr, ptr %8, align 8, !tbaa !155
  %47 = load ptr, ptr %5, align 8, !tbaa !21
  %48 = getelementptr inbounds nuw %struct.dt_camera_t, ptr %47, i32 0, i32 3
  %49 = load ptr, ptr %48, align 8, !tbaa !98
  call void @_camera_configuration_notify_change(ptr noundef %44, ptr noundef %45, ptr noundef %46, ptr noundef %49)
  call void @llvm.lifetime.start.p0(i64 8, ptr %10) #10
  store ptr null, ptr %10, align 8, !tbaa !155
  %50 = load ptr, ptr %7, align 8, !tbaa !21
  %51 = getelementptr inbounds nuw %struct.dt_camera_t, ptr %50, i32 0, i32 3
  %52 = load ptr, ptr %51, align 8, !tbaa !98
  %53 = load ptr, ptr %6, align 8, !tbaa !63
  %54 = call i32 @gp_widget_get_child_by_name(ptr noundef %52, ptr noundef %53, ptr noundef %10)
  %55 = icmp eq i32 %54, 0
  br i1 %55, label %56, label %63

56:                                               ; preds = %43
  call void @llvm.lifetime.start.p0(i64 8, ptr %11) #10
  store ptr null, ptr %11, align 8, !tbaa !72
  %57 = load ptr, ptr %8, align 8, !tbaa !155
  %58 = load ptr, ptr %11, align 8, !tbaa !72
  %59 = call i32 @gp_widget_get_value(ptr noundef %57, ptr noundef %58)
  %60 = load ptr, ptr %10, align 8, !tbaa !155
  %61 = load ptr, ptr %11, align 8, !tbaa !72
  %62 = call i32 @gp_widget_set_value(ptr noundef %60, ptr noundef %61)
  call void @llvm.lifetime.end.p0(i64 8, ptr %11) #10
  br label %63

63:                                               ; preds = %56, %43
  %64 = load ptr, ptr %7, align 8, !tbaa !21
  %65 = getelementptr inbounds nuw %struct.dt_camera_t, ptr %64, i32 0, i32 5
  %66 = call i32 @dt_pthread_mutex_unlock(ptr noundef %65)
  call void @llvm.lifetime.end.p0(i64 8, ptr %10) #10
  store i32 0, ptr %9, align 4
  br label %67

67:                                               ; preds = %63, %39
  call void @llvm.lifetime.end.p0(i64 8, ptr %8) #10
  call void @llvm.lifetime.end.p0(i64 8, ptr %7) #10
  %68 = load i32, ptr %9, align 4
  switch i32 %68, label %70 [
    i32 0, label %69
    i32 1, label %69
  ]

69:                                               ; preds = %67, %67
  ret void

70:                                               ; preds = %67
  unreachable
}