; Function Attrs: nounwind uwtable
define internal fastcc void @_camera_configuration_single_update(ptr noundef %0, ptr noundef %1, ptr noundef nonnull %2) unnamed_addr #0 {
  %4 = alloca ptr, align 8
  %5 = alloca ptr, align 8
  %6 = getelementptr inbounds nuw i8, ptr %1, i64 32800
  %7 = tail call i32 @pthread_mutex_lock(ptr noundef nonnull %6) #15
  call void @llvm.lifetime.start.p0(i64 8, ptr nonnull %4) #15
  %8 = getelementptr inbounds nuw i8, ptr %1, i64 32952
  %9 = load ptr, ptr %8, align 8, !tbaa !94
  %10 = getelementptr inbounds nuw i8, ptr %0, i64 112
  %11 = load ptr, ptr %10, align 8, !tbaa !73
  %12 = call i32 @gp_camera_get_single_config(ptr noundef %9, ptr noundef nonnull %2, ptr noundef nonnull %4, ptr noundef %11) #15
  %.not = icmp eq i32 %12, 0
  br i1 %.not, label %19, label %13

13:                                               ; preds = %3
  %14 = load i32, ptr getelementptr inbounds nuw (i8, ptr @darktable, i64 8), align 8, !tbaa !19
  %15 = and i32 %14, 32
  %.not15 = icmp eq i32 %15, 0
  br i1 %.not15, label %17, label %16

16:                                               ; preds = %13
  call void (ptr, ...) @dt_print_ext(ptr noundef nonnull @.str.93, ptr noundef nonnull %2) #15
  br label %17

17:                                               ; preds = %16, %13
  %18 = call i32 @pthread_mutex_unlock(ptr noundef nonnull %6) #15
  br label %33

19:                                               ; preds = %3
  %20 = load ptr, ptr %4, align 8, !tbaa !146
  %21 = getelementptr inbounds nuw i8, ptr %1, i64 32784
  %22 = load ptr, ptr %21, align 8, !tbaa !96
  call fastcc void @_camera_configuration_notify_change(ptr noundef nonnull %0, ptr noundef nonnull %1, ptr noundef %20, ptr noundef %22)
  call void @llvm.lifetime.start.p0(i64 8, ptr nonnull %5) #15
  store ptr null, ptr %5, align 8, !tbaa !146
  %23 = load ptr, ptr %21, align 8, !tbaa !96
  %24 = call i32 @gp_widget_get_child_by_name(ptr noundef %23, ptr noundef nonnull %2, ptr noundef nonnull %5) #15
  %25 = icmp eq i32 %24, 0
  br i1 %25, label %26, label %31

26:                                               ; preds = %19
  %27 = load ptr, ptr %4, align 8, !tbaa !146
  %28 = call i32 @gp_widget_get_value(ptr noundef %27, ptr noundef null) #15
  %29 = load ptr, ptr %5, align 8, !tbaa !146
  %30 = call i32 @gp_widget_set_value(ptr noundef %29, ptr noundef null) #15
  br label %31

31:                                               ; preds = %26, %19
  %32 = call i32 @pthread_mutex_unlock(ptr noundef nonnull %6) #15
  call void @llvm.lifetime.end.p0(i64 8, ptr nonnull %5) #15
  br label %33

33:                                               ; preds = %31, %17
  call void @llvm.lifetime.end.p0(i64 8, ptr nonnull %4) #15
  ret void
}